; Function Attrs: nounwind uwtable
define noundef ptr @l___private_Lean_ResolveName_0__Lean_resolveGlobalConstCore___at_Lean_Elab_Term_elabOpen___spec__14(ptr noundef %0, ptr noundef %1, ptr readnone captures(none) %2, ptr readnone captures(none) %3, ptr noundef %4, ptr noundef %5, ptr noundef %6, ptr noundef %7, ptr noundef %8) local_unnamed_addr #0 {
  %10 = ptrtoint ptr %0 to i64
  %11 = and i64 %10, 1
  %.not = icmp eq i64 %11, 0
  br i1 %.not, label %12, label %lean_inc.exit27

12:                                               ; preds = %9
  %.val.i = load i32, ptr %0, align 4, !tbaa !8
  %13 = icmp sgt i32 %.val.i, 0
  br i1 %13, label %14, label %16, !prof !15

14:                                               ; preds = %12
  %15 = add nuw i32 %.val.i, 1
  store i32 %15, ptr %0, align 4, !tbaa !8
  br label %lean_inc.exit27

16:                                               ; preds = %12
  %.not.i28 = icmp eq i32 %.val.i, 0
  br i1 %.not.i28, label %lean_inc.exit27, label %17

17:                                               ; preds = %16
  tail call void @lean_inc_ref_cold(ptr noundef nonnull %0) #6
  br label %lean_inc.exit27

lean_inc.exit27:                                  ; preds = %17, %16, %14, %9
  %18 = tail call ptr @l_Lean_resolveGlobalName___at_Lean_Elab_Term_elabOpen___spec__15(ptr noundef %0, ptr noundef %1, ptr poison, ptr poison, ptr poison, ptr poison, ptr poison, ptr noundef %7, ptr noundef %8)
  %19 = getelementptr inbounds nuw i8, ptr %18, i64 8
  %20 = load ptr, ptr %19, align 8, !tbaa !4
  %21 = ptrtoint ptr %20 to i64
  %22 = and i64 %21, 1
  %.not35 = icmp eq i64 %22, 0
  br i1 %.not35, label %23, label %lean_inc.exit26

23:                                               ; preds = %lean_inc.exit27
  %.val.i29 = load i32, ptr %20, align 4, !tbaa !8
  %24 = icmp sgt i32 %.val.i29, 0
  br i1 %24, label %25, label %27, !prof !15

25:                                               ; preds = %23
  %26 = add nuw i32 %.val.i29, 1
  store i32 %26, ptr %20, align 4, !tbaa !8
  br label %lean_inc.exit26

27:                                               ; preds = %23
  %.not.i30 = icmp eq i32 %.val.i29, 0
  br i1 %.not.i30, label %lean_inc.exit26, label %28

28:                                               ; preds = %27
  tail call void @lean_inc_ref_cold(ptr noundef nonnull %20) #6
  br label %lean_inc.exit26

lean_inc.exit26:                                  ; preds = %28, %27, %25, %lean_inc.exit27
  %29 = getelementptr inbounds nuw i8, ptr %18, i64 16
  %30 = load ptr, ptr %29, align 8, !tbaa !4
  %31 = ptrtoint ptr %30 to i64
  %32 = and i64 %31, 1
  %.not36 = icmp eq i64 %32, 0
  br i1 %.not36, label %33, label %lean_inc.exit

33:                                               ; preds = %lean_inc.exit26
  %.val.i32 = load i32, ptr %30, align 4, !tbaa !8
  %34 = icmp sgt i32 %.val.i32, 0
  br i1 %34, label %35, label %37, !prof !15

35:                                               ; preds = %33
  %36 = add nuw i32 %.val.i32, 1
  store i32 %36, ptr %30, align 4, !tbaa !8
  br label %lean_inc.exit

37:                                               ; preds = %33
  %.not.i33 = icmp eq i32 %.val.i32, 0
  br i1 %.not.i33, label %lean_inc.exit, label %38

38:                                               ; preds = %37
  tail call void @lean_inc_ref_cold(ptr noundef nonnull %30) #6
  br label %lean_inc.exit

lean_inc.exit:                                    ; preds = %38, %37, %35, %lean_inc.exit26
  %39 = ptrtoint ptr %18 to i64
  %40 = and i64 %39, 1
  %.not37 = icmp eq i64 %40, 0
  br i1 %.not37, label %41, label %lean_dec.exit

41:                                               ; preds = %lean_inc.exit
  %42 = load i32, ptr %18, align 4, !tbaa !8
  %43 = icmp sgt i32 %42, 1
  br i1 %43, label %44, label %46, !prof !15

44:                                               ; preds = %41
  %45 = add nsw i32 %42, -1
  store i32 %45, ptr %18, align 4, !tbaa !8
  br label %lean_dec.exit

46:                                               ; preds = %41
  %.not.i = icmp eq i32 %42, 0
  br i1 %.not.i, label %lean_dec.exit, label %47

47:                                               ; preds = %46
  tail call void @lean_dec_ref_cold(ptr noundef nonnull %18) #6
  br label %lean_dec.exit

lean_dec.exit:                                    ; preds = %47, %46, %44, %lean_inc.exit
  %48 = tail call ptr @l_Lean_filterFieldList___at_Lean_Elab_Term_elabOpen___spec__16(ptr noundef %0, ptr noundef %20, ptr poison, ptr poison, ptr poison, ptr noundef %4, ptr noundef %5, ptr noundef %6, ptr noundef %7, ptr noundef %30)
  ret ptr %48
}